target datalayout = "e-m:e-p270:32:32-p271:32:32-p272:64:64-i64:64-i128:128-f80:128-n8:16:32:64-S128"
target triple = "x86_64-pc-linux-gnu"

@Kit_TruthVarsSymm.uTemp0 = internal global [32 x i32] zeroinitializer, align 16
@Kit_TruthVarsSymm.uTemp1 = internal global [32 x i32] zeroinitializer, align 16

; Function Attrs: inlinehint nounwind uwtable
define internal i32 @Kit_TruthWordNum(i32 noundef %0) #2 {
  %2 = alloca i32, align 4
  store i32 %0, ptr %2, align 4, !tbaa !8
  %3 = load i32, ptr %2, align 4, !tbaa !8
  %4 = icmp sle i32 %3, 5
  br i1 %4, label %5, label %6

5:                                                ; preds = %1
  br label %10

6:                                                ; preds = %1
  %7 = load i32, ptr %2, align 4, !tbaa !8
  %8 = sub nsw i32 %7, 5
  %9 = shl i32 1, %8
  br label %10

10:                                               ; preds = %6, %5
  %11 = phi i32 [ 1, %5 ], [ %9, %6 ]
  ret i32 %11
}

; Function Attrs: inlinehint nounwind uwtable
define internal i32 @Kit_TruthIsEqual(ptr noundef %0, ptr noundef %1, i32 noundef %2) #2 {
  %4 = alloca i32, align 4
  %5 = alloca ptr, align 8
  %6 = alloca ptr, align 8
  %7 = alloca i32, align 4
  %8 = alloca i32, align 4
  %9 = alloca i32, align 4
  store ptr %0, ptr %5, align 8, !tbaa !3
  store ptr %1, ptr %6, align 8, !tbaa !3
  store i32 %2, ptr %7, align 4, !tbaa !8
  call void @llvm.lifetime.start.p0(i64 4, ptr %8) #8
  %10 = load i32, ptr %7, align 4, !tbaa !8
  %11 = call i32 @Kit_TruthWordNum(i32 noundef %10)
  %12 = sub nsw i32 %11, 1
  store i32 %12, ptr %8, align 4, !tbaa !8
  br label %13

13:                                               ; preds = %30, %3
  %14 = load i32, ptr %8, align 4, !tbaa !8
  %15 = icmp sge i32 %14, 0
  br i1 %15, label %16, label %33

16:                                               ; preds = %13
  %17 = load ptr, ptr %5, align 8, !tbaa !3
  %18 = load i32, ptr %8, align 4, !tbaa !8
  %19 = sext i32 %18 to i64
  %20 = getelementptr inbounds i32, ptr %17, i64 %19
  %21 = load i32, ptr %20, align 4, !tbaa !8
  %22 = load ptr, ptr %6, align 8, !tbaa !3
  %23 = load i32, ptr %8, align 4, !tbaa !8
  %24 = sext i32 %23 to i64
  %25 = getelementptr inbounds i32, ptr %22, i64 %24
  %26 = load i32, ptr %25, align 4, !tbaa !8
  %27 = icmp ne i32 %21, %26
  br i1 %27, label %28, label %29

28:                                               ; preds = %16
  store i32 0, ptr %4, align 4
  store i32 1, ptr %9, align 4
  br label %34

29:                                               ; preds = %16
  br label %30

30:                                               ; preds = %29
  %31 = load i32, ptr %8, align 4, !tbaa !8
  %32 = add nsw i32 %31, -1
  store i32 %32, ptr %8, align 4, !tbaa !8
  br label %13, !llvm.loop !148

33:                                               ; preds = %13
  store i32 1, ptr %4, align 4
  store i32 1, ptr %9, align 4
  br label %34

34:                                               ; preds = %33, %28
  call void @llvm.lifetime.end.p0(i64 4, ptr %8) #8
  %35 = load i32, ptr %4, align 4
  ret i32 %35
}

; Function Attrs: inlinehint nounwind uwtable
define internal void @Kit_TruthCopy(ptr noundef %0, ptr noundef %1, i32 noundef %2) #2 {
  %4 = alloca ptr, align 8
  %5 = alloca ptr, align 8
  %6 = alloca i32, align 4
  %7 = alloca i32, align 4
  store ptr %0, ptr %4, align 8, !tbaa !3
  store ptr %1, ptr %5, align 8, !tbaa !3
  store i32 %2, ptr %6, align 4, !tbaa !8
  call void @llvm.lifetime.start.p0(i64 4, ptr %7) #8
  %8 = load i32, ptr %6, align 4, !tbaa !8
  %9 = call i32 @Kit_TruthWordNum(i32 noundef %8)
  %10 = sub nsw i32 %9, 1
  store i32 %10, ptr %7, align 4, !tbaa !8
  br label %11

11:                                               ; preds = %24, %3
  %12 = load i32, ptr %7, align 4, !tbaa !8
  %13 = icmp sge i32 %12, 0
  br i1 %13, label %14, label %27

14:                                               ; preds = %11
  %15 = load ptr, ptr %5, align 8, !tbaa !3
  %16 = load i32, ptr %7, align 4, !tbaa !8
  %17 = sext i32 %16 to i64
  %18 = getelementptr inbounds i32, ptr %15, i64 %17
  %19 = load i32, ptr %18, align 4, !tbaa !8
  %20 = load ptr, ptr %4, align 8, !tbaa !3
  %21 = load i32, ptr %7, align 4, !tbaa !8
  %22 = sext i32 %21 to i64
  %23 = getelementptr inbounds i32, ptr %20, i64 %22
  store i32 %19, ptr %23, align 4, !tbaa !8
  br label %24

24:                                               ; preds = %14
  %25 = load i32, ptr %7, align 4, !tbaa !8
  %26 = add nsw i32 %25, -1
  store i32 %26, ptr %7, align 4, !tbaa !8
  br label %11, !llvm.loop !30

27:                                               ; preds = %11
  call void @llvm.lifetime.end.p0(i64 4, ptr %7) #8
  ret void
}

; Function Attrs: nounwind uwtable
define i32 @Kit_TruthVarsSymm(ptr noundef %0, i32 noundef %1, i32 noundef %2, i32 noundef %3, ptr noundef %4, ptr noundef %5) #0 {
  %7 = alloca ptr, align 8
  %8 = alloca i32, align 4
  %9 = alloca i32, align 4
  %10 = alloca i32, align 4
  %11 = alloca ptr, align 8
  %12 = alloca ptr, align 8
  store ptr %0, ptr %7, align 8, !tbaa !3
  store i32 %1, ptr %8, align 4, !tbaa !8
  store i32 %2, ptr %9, align 4, !tbaa !8
  store i32 %3, ptr %10, align 4, !tbaa !8
  store ptr %4, ptr %11, align 8, !tbaa !3
  store ptr %5, ptr %12, align 8, !tbaa !3
  %13 = load ptr, ptr %11, align 8, !tbaa !3
  %14 = icmp eq ptr %13, null
  br i1 %14, label %15, label %16

15:                                               ; preds = %6
  store ptr @Kit_TruthVarsSymm.uTemp0, ptr %11, align 8, !tbaa !3
  br label %16

16:                                               ; preds = %15, %6
  %17 = load ptr, ptr %12, align 8, !tbaa !3
  %18 = icmp eq ptr %17, null
  br i1 %18, label %19, label %20

19:                                               ; preds = %16
  store ptr @Kit_TruthVarsSymm.uTemp1, ptr %12, align 8, !tbaa !3
  br label %20

20:                                               ; preds = %19, %16
  %21 = load ptr, ptr %11, align 8, !tbaa !3
  %22 = load ptr, ptr %7, align 8, !tbaa !3
  %23 = load i32, ptr %8, align 4, !tbaa !8
  call void @Kit_TruthCopy(ptr noundef %21, ptr noundef %22, i32 noundef %23)
  %24 = load ptr, ptr %11, align 8, !tbaa !3
  %25 = load i32, ptr %8, align 4, !tbaa !8
  %26 = load i32, ptr %9, align 4, !tbaa !8
  call void @Kit_TruthCofactor0(ptr noundef %24, i32 noundef %25, i32 noundef %26)
  %27 = load ptr, ptr %11, align 8, !tbaa !3
  %28 = load i32, ptr %8, align 4, !tbaa !8
  %29 = load i32, ptr %10, align 4, !tbaa !8
  call void @Kit_TruthCofactor1(ptr noundef %27, i32 noundef %28, i32 noundef %29)
  %30 = load ptr, ptr %12, align 8, !tbaa !3
  %31 = load ptr, ptr %7, align 8, !tbaa !3
  %32 = load i32, ptr %8, align 4, !tbaa !8
  call void @Kit_TruthCopy(ptr noundef %30, ptr noundef %31, i32 noundef %32)
  %33 = load ptr, ptr %12, align 8, !tbaa !3
  %34 = load i32, ptr %8, align 4, !tbaa !8
  %35 = load i32, ptr %9, align 4, !tbaa !8
  call void @Kit_TruthCofactor1(ptr noundef %33, i32 noundef %34, i32 noundef %35)
  %36 = load ptr, ptr %12, align 8, !tbaa !3
  %37 = load i32, ptr %8, align 4, !tbaa !8
  %38 = load i32, ptr %10, align 4, !tbaa !8
  call void @Kit_TruthCofactor0(ptr noundef %36, i32 noundef %37, i32 noundef %38)
  %39 = load ptr, ptr %11, align 8, !tbaa !3
  %40 = load ptr, ptr %12, align 8, !tbaa !3
  %41 = load i32, ptr %8, align 4, !tbaa !8
  %42 = call i32 @Kit_TruthIsEqual(ptr noundef %39, ptr noundef %40, i32 noundef %41)
  ret i32 %42
}