; Function Attrs: nofree norecurse nosync nounwind memory(readwrite, inaccessiblemem: none) uwtable
define range(i32 0, 2) i32 @Kit_TruthVarsSymm(ptr noundef readonly captures(none) %0, i32 noundef %1, i32 noundef %2, i32 noundef %3, ptr noundef %4, ptr noundef %5) local_unnamed_addr #2 {
  %7 = icmp eq ptr %4, null
  %spec.store.select = select i1 %7, ptr @Kit_TruthVarsSymm.uTemp0, ptr %4
  %8 = icmp eq ptr %5, null
  %spec.store.select1 = select i1 %8, ptr @Kit_TruthVarsSymm.uTemp1, ptr %5
  %9 = icmp slt i32 %1, 6
  %10 = add nsw i32 %1, -5
  %11 = shl nuw i32 1, %10
  %spec.select.i = select i1 %9, i32 1, i32 %11
  %12 = icmp sgt i32 %spec.select.i, 0
  br i1 %12, label %select.unfold.preheader.i, label %Kit_TruthCopy.exit28.critedge

select.unfold.preheader.i:                        ; preds = %6
  %13 = zext nneg i32 %spec.select.i to i64
  br label %select.unfold.i

select.unfold.i:                                  ; preds = %select.unfold.i, %select.unfold.preheader.i
  %indvars.iv.i = phi i64 [ %13, %select.unfold.preheader.i ], [ %indvars.iv.next.i, %select.unfold.i ]
  %indvars.iv.next.i = add nsw i64 %indvars.iv.i, -1
  %14 = getelementptr inbounds nuw i32, ptr %0, i64 %indvars.iv.next.i
  %15 = load i32, ptr %14, align 4, !tbaa !3
  %16 = getelementptr inbounds nuw i32, ptr %spec.store.select, i64 %indvars.iv.next.i
  store i32 %15, ptr %16, align 4, !tbaa !3
  %17 = icmp samesign ugt i64 %indvars.iv.i, 1
  br i1 %17, label %select.unfold.i, label %Kit_TruthCopy.exit, !llvm.loop !27

Kit_TruthCopy.exit:                               ; preds = %select.unfold.i
  tail call void @Kit_TruthCofactor0(ptr noundef nonnull %spec.store.select, i32 noundef %1, i32 noundef %2)
  tail call void @Kit_TruthCofactor1(ptr noundef nonnull %spec.store.select, i32 noundef %1, i32 noundef %3)
  br label %select.unfold.i25

select.unfold.i25:                                ; preds = %select.unfold.i25, %Kit_TruthCopy.exit
  %indvars.iv.i26 = phi i64 [ %13, %Kit_TruthCopy.exit ], [ %indvars.iv.next.i27, %select.unfold.i25 ]
  %indvars.iv.next.i27 = add nsw i64 %indvars.iv.i26, -1
  %18 = getelementptr inbounds nuw i32, ptr %0, i64 %indvars.iv.next.i27
  %19 = load i32, ptr %18, align 4, !tbaa !3
  %20 = getelementptr inbounds nuw i32, ptr %spec.store.select1, i64 %indvars.iv.next.i27
  store i32 %19, ptr %20, align 4, !tbaa !3
  %21 = icmp samesign ugt i64 %indvars.iv.i26, 1
  br i1 %21, label %select.unfold.i25, label %Kit_TruthCopy.exit28, !llvm.loop !27

Kit_TruthCopy.exit28.critedge:                    ; preds = %6
  tail call void @Kit_TruthCofactor0(ptr noundef nonnull %spec.store.select, i32 noundef %1, i32 noundef %2)
  tail call void @Kit_TruthCofactor1(ptr noundef nonnull %spec.store.select, i32 noundef %1, i32 noundef %3)
  br label %Kit_TruthCopy.exit28

Kit_TruthCopy.exit28:                             ; preds = %select.unfold.i25, %Kit_TruthCopy.exit28.critedge
  %.pre-phi = phi i64 [ 2147483648, %Kit_TruthCopy.exit28.critedge ], [ %13, %select.unfold.i25 ]
  tail call void @Kit_TruthCofactor1(ptr noundef nonnull %spec.store.select1, i32 noundef %1, i32 noundef %2)
  tail call void @Kit_TruthCofactor0(ptr noundef nonnull %spec.store.select1, i32 noundef %1, i32 noundef %3)
  br label %select.unfold.i30

select.unfold.i30:                                ; preds = %24, %Kit_TruthCopy.exit28
  %indvars.iv.i31 = phi i64 [ %.pre-phi, %Kit_TruthCopy.exit28 ], [ %25, %24 ]
  %22 = trunc nuw i64 %indvars.iv.i31 to i32
  %23 = icmp sgt i32 %22, 0
  br i1 %23, label %24, label %Kit_TruthIsEqual.exit

24:                                               ; preds = %select.unfold.i30
  %25 = add nsw i64 %indvars.iv.i31, -1
  %26 = getelementptr inbounds nuw i32, ptr %spec.store.select, i64 %25
  %27 = load i32, ptr %26, align 4, !tbaa !3
  %28 = getelementptr inbounds nuw i32, ptr %spec.store.select1, i64 %25
  %29 = load i32, ptr %28, align 4, !tbaa !3
  %.not.i = icmp eq i32 %27, %29
  br i1 %.not.i, label %select.unfold.i30, label %Kit_TruthIsEqual.exit, !llvm.loop !142

Kit_TruthIsEqual.exit:                            ; preds = %select.unfold.i30, %24
  %.07.i = phi i32 [ 0, %24 ], [ 1, %select.unfold.i30 ]
  ret i32 %.07.i
}